; Function Attrs: mustprogress uwtable
define hidden void @_ZN4cvc58internal6theory5arith10castToRealEPNS0_11NodeManagerERKNS0_12NodeTemplateILb1EEE(ptr dead_on_unwind noalias writable sret(%"class.cvc5::internal::NodeTemplate") align 8 %0, ptr noundef %1, ptr noundef nonnull align 8 dereferenceable(8) %2) local_unnamed_addr #4 personality ptr @__gxx_personality_v0 {
  %4 = alloca %"class.cvc5::internal::NodeBuilder", align 8
  %5 = alloca %"class.cvc5::internal::NodeTemplate.73", align 8
  %6 = tail call noundef zeroext i1 @_ZNK4cvc58internal12NodeTemplateILb1EE7isConstEv(ptr noundef nonnull align 8 dereferenceable(8) %2)
  %7 = load ptr, ptr %2, align 8, !tbaa !3
  br i1 %6, label %.thread, label %.noexc

.thread:                                          ; preds = %3
  %8 = tail call noundef nonnull align 8 dereferenceable(32) ptr @_ZNK4cvc58internal4expr9NodeValue8getConstINS0_8RationalEEERKT_v(ptr noundef nonnull align 8 dereferenceable(24) %7)
  tail call void @_ZN4cvc58internal11NodeManager11mkConstRealERKNS0_8RationalE(ptr dead_on_unwind writable sret(%"class.cvc5::internal::NodeTemplate") align 8 %0, ptr noundef nonnull align 8 dereferenceable(3560) %1, ptr noundef nonnull align 8 dereferenceable(32) %8)
  br label %18

.noexc:                                           ; preds = %3
  call void @llvm.lifetime.start.p0(i64 8, ptr nonnull %5)
  call void @llvm.lifetime.start.p0(i64 128, ptr nonnull %4) #23, !noalias !105
  %9 = getelementptr inbounds nuw i8, ptr %7, i64 16
  %10 = load ptr, ptr %9, align 8, !tbaa !28, !noalias !105
  call void @_ZN4cvc58internal11NodeBuilderC1EPNS0_11NodeManagerENS0_4kind6Kind_tE(ptr noundef nonnull align 8 dereferenceable(124) %4, ptr noundef %10, i32 noundef 83)
  store ptr %7, ptr %5, align 8, !tbaa !32, !noalias !105
  %11 = invoke noundef nonnull align 8 dereferenceable(124) ptr @_ZN4cvc58internal11NodeBuilderlsENS0_12NodeTemplateILb0EEE(ptr noundef nonnull align 8 dereferenceable(124) %4, ptr noundef nonnull %5)
          to label %12 unwind label %15, !noalias !105

12:                                               ; preds = %.noexc
  invoke void @_ZN4cvc58internal11NodeBuilder13constructNodeEv(ptr dead_on_unwind writable sret(%"class.cvc5::internal::NodeTemplate") align 8 %0, ptr noundef nonnull align 8 dereferenceable(124) %4)
          to label %17 unwind label %13

13:                                               ; preds = %12
  %14 = landingpad { ptr, i32 }
          cleanup
  br label %.body

15:                                               ; preds = %.noexc
  %16 = landingpad { ptr, i32 }
          cleanup
  br label %.body

.body:                                            ; preds = %15, %13
  %.pn.i = phi { ptr, i32 } [ %14, %13 ], [ %16, %15 ]
  call void @_ZN4cvc58internal11NodeBuilderD1Ev(ptr noundef nonnull align 8 dereferenceable(124) %4) #23
  call void @llvm.lifetime.end.p0(i64 128, ptr nonnull %4) #23, !noalias !105
  resume { ptr, i32 } %.pn.i

17:                                               ; preds = %12
  call void @_ZN4cvc58internal11NodeBuilderD1Ev(ptr noundef nonnull align 8 dereferenceable(124) %4) #23
  call void @llvm.lifetime.end.p0(i64 128, ptr nonnull %4) #23, !noalias !105
  call void @llvm.lifetime.end.p0(i64 8, ptr nonnull %5)
  br label %18

18:                                               ; preds = %.thread, %17
  ret void
}